target datalayout = "e-m:e-p270:32:32-p271:32:32-p272:64:64-i64:64-i128:128-f80:128-n8:16:32:64-S128"
target triple = "x86_64-pc-linux-gnu"

%struct.H5FL_blk_head_t = type { i8, i32, i32, i64, ptr, ptr }
%struct.H5O_loc_t = type { ptr, i64, i8 }
%struct.H5A_t = type { %struct.H5O_shared_t, %struct.H5O_loc_t, i8, %struct.H5G_name_t, ptr }
%struct.H5O_shared_t = type { i32, ptr, i32, %union.anon }
%union.anon = type { %struct.H5O_mesg_loc_t }
%struct.H5O_mesg_loc_t = type { i32, i64 }
%struct.H5G_name_t = type { ptr, ptr, i32 }
%struct.H5A_shared_t = type { i8, ptr, i32, ptr, i64, ptr, i64, ptr, i64, i32, i32 }

@H5_attr_buf_blk_free_list = global %struct.H5FL_blk_head_t { i8 0, i32 0, i32 0, i64 0, ptr @.str.2, ptr null }, align 8
@.str.3 = private unnamed_addr constant [100 x i8] c"generated/home/dtcxzyw/WorkSpace/Projects/compilers/llvm-opt-benchmark/bench/hdf5/hdf5/src/H5Aint.c\00", align 1
@H5E_ATTR_g = external global i64, align 8
@H5E_CANTALLOC_g = external global i64, align 8
@H5E_DATASET_g = external global i64, align 8
@H5E_CANTOPENOBJ_g = external global i64, align 8
@H5E_CANTCOUNT_g = external global i64, align 8
@.str.23 = private unnamed_addr constant [21 x i8] c"dataspace is invalid\00", align 1
@__func__.H5A__read = private unnamed_addr constant [10 x i8] c"H5A__read\00", align 1
@.str.34 = private unnamed_addr constant [37 x i8] c"can't patch VL datatype file pointer\00", align 1
@H5E_UNSUPPORTED_g = external global i64, align 8
@.str.35 = private unnamed_addr constant [48 x i8] c"unable to convert between src and dst datatypes\00", align 1
@H5E_NOSPACE_g = external global i64, align 8
@.str.36 = private unnamed_addr constant [25 x i8] c"memory allocation failed\00", align 1
@H5E_CANTCONVERT_g = external global i64, align 8
@.str.37 = private unnamed_addr constant [27 x i8] c"datatype conversion failed\00", align 1

; Function Attrs: nounwind uwtable
define i32 @H5A__read(ptr noundef %0, ptr noundef %1, ptr noundef %2) #0 {
  %4 = alloca ptr, align 8
  %5 = alloca ptr, align 8
  %6 = alloca ptr, align 8
  %7 = alloca ptr, align 8
  %8 = alloca ptr, align 8
  %9 = alloca i64, align 8
  %10 = alloca i64, align 8
  %11 = alloca ptr, align 8
  %12 = alloca i64, align 8
  %13 = alloca i64, align 8
  %14 = alloca i64, align 8
  %15 = alloca i32, align 4
  %16 = alloca i64, align 8
  %17 = alloca i8, align 1
  %18 = alloca i32, align 4
  store ptr %0, ptr %4, align 8
  store ptr %1, ptr %5, align 8
  store ptr %2, ptr %6, align 8
  store ptr null, ptr %7, align 8
  store ptr null, ptr %8, align 8
  store ptr null, ptr %11, align 8
  store i32 0, ptr %15, align 4
  store i64 -1, ptr %16, align 8
  store i8 0, ptr %17, align 1
  %19 = load ptr, ptr %4, align 8
  %20 = getelementptr inbounds %struct.H5A_t, ptr %19, i32 0, i32 1
  %21 = getelementptr inbounds %struct.H5O_loc_t, ptr %20, i32 0, i32 1
  %22 = load i64, ptr %21, align 8
  call void @H5AC_tag(i64 noundef %22, ptr noundef %16)
  %23 = load ptr, ptr %4, align 8
  %24 = getelementptr inbounds %struct.H5A_t, ptr %23, i32 0, i32 4
  %25 = load ptr, ptr %24, align 8
  %26 = getelementptr inbounds %struct.H5A_shared_t, ptr %25, i32 0, i32 3
  %27 = load ptr, ptr %26, align 8
  %28 = load ptr, ptr %4, align 8
  %29 = getelementptr inbounds %struct.H5A_t, ptr %28, i32 0, i32 1
  %30 = getelementptr inbounds %struct.H5O_loc_t, ptr %29, i32 0, i32 0
  %31 = load ptr, ptr %30, align 8
  %32 = call ptr @H5F_get_vol_obj(ptr noundef %31)
  %33 = call i32 @H5T_patch_vlen_file(ptr noundef %27, ptr noundef %32)
  %34 = icmp slt i32 %33, 0
  br i1 %34, label %35, label %50

35:                                               ; preds = %3
  br label %36

36:                                               ; preds = %35
  br label %37

37:                                               ; preds = %36
  br label %38

38:                                               ; preds = %37
  %39 = load i64, ptr @H5E_DATASET_g, align 8
  %40 = load i64, ptr @H5E_CANTOPENOBJ_g, align 8
  %41 = call i32 (ptr, ptr, i32, i64, i64, ptr, ...) @H5E_printf_stack(ptr noundef @.str.3, ptr noundef @__func__.H5A__read, i32 noundef 690, i64 noundef %39, i64 noundef %40, ptr noundef @.str.34)
  br label %42

42:                                               ; preds = %38
  store i8 1, ptr %17, align 1
  %43 = load i8, ptr %17, align 1
  %44 = trunc i8 %43 to i1
  %45 = zext i1 %44 to i8
  store i8 %45, ptr %17, align 1
  br label %46

46:                                               ; preds = %42
  br label %47

47:                                               ; preds = %46
  store i32 -1, ptr %15, align 4
  br label %251

48:                                               ; No predecessors!
  br label %49

49:                                               ; preds = %48
  br label %50

50:                                               ; preds = %49, %3
  %51 = load ptr, ptr %4, align 8
  %52 = getelementptr inbounds %struct.H5A_t, ptr %51, i32 0, i32 4
  %53 = load ptr, ptr %52, align 8
  %54 = getelementptr inbounds %struct.H5A_shared_t, ptr %53, i32 0, i32 5
  %55 = load ptr, ptr %54, align 8
  %56 = call i64 @H5S_get_simple_extent_npoints(ptr noundef %55)
  store i64 %56, ptr %9, align 8
  %57 = icmp slt i64 %56, 0
  br i1 %57, label %58, label %73

58:                                               ; preds = %50
  br label %59

59:                                               ; preds = %58
  br label %60

60:                                               ; preds = %59
  br label %61

61:                                               ; preds = %60
  %62 = load i64, ptr @H5E_ATTR_g, align 8
  %63 = load i64, ptr @H5E_CANTCOUNT_g, align 8
  %64 = call i32 (ptr, ptr, i32, i64, i64, ptr, ...) @H5E_printf_stack(ptr noundef @.str.3, ptr noundef @__func__.H5A__read, i32 noundef 694, i64 noundef %62, i64 noundef %63, ptr noundef @.str.23)
  br label %65

65:                                               ; preds = %61
  store i8 1, ptr %17, align 1
  %66 = load i8, ptr %17, align 1
  %67 = trunc i8 %66 to i1
  %68 = zext i1 %67 to i8
  store i8 %68, ptr %17, align 1
  br label %69

69:                                               ; preds = %65
  br label %70

70:                                               ; preds = %69
  store i32 -1, ptr %15, align 4
  br label %251

71:                                               ; No predecessors!
  br label %72

72:                                               ; preds = %71
  br label %73

73:                                               ; preds = %72, %50
  br label %74

74:                                               ; preds = %73
  %75 = load i64, ptr %9, align 8
  store i64 %75, ptr %10, align 8
  br label %76

76:                                               ; preds = %74
  %77 = load i64, ptr %10, align 8
  %78 = icmp ugt i64 %77, 0
  br i1 %78, label %79, label %250

79:                                               ; preds = %76
  %80 = load ptr, ptr %4, align 8
  %81 = getelementptr inbounds %struct.H5A_t, ptr %80, i32 0, i32 4
  %82 = load ptr, ptr %81, align 8
  %83 = getelementptr inbounds %struct.H5A_shared_t, ptr %82, i32 0, i32 3
  %84 = load ptr, ptr %83, align 8
  %85 = call i64 @H5T_get_size(ptr noundef %84)
  store i64 %85, ptr %12, align 8
  %86 = load ptr, ptr %5, align 8
  %87 = call i64 @H5T_get_size(ptr noundef %86)
  store i64 %87, ptr %13, align 8
  %88 = load ptr, ptr %4, align 8
  %89 = getelementptr inbounds %struct.H5A_t, ptr %88, i32 0, i32 2
  %90 = load i8, ptr %89, align 8
  %91 = trunc i8 %90 to i1
  br i1 %91, label %92, label %104

92:                                               ; preds = %79
  %93 = load ptr, ptr %4, align 8
  %94 = getelementptr inbounds %struct.H5A_t, ptr %93, i32 0, i32 4
  %95 = load ptr, ptr %94, align 8
  %96 = getelementptr inbounds %struct.H5A_shared_t, ptr %95, i32 0, i32 7
  %97 = load ptr, ptr %96, align 8
  %98 = icmp ne ptr %97, null
  br i1 %98, label %104, label %99

99:                                               ; preds = %92
  %100 = load ptr, ptr %6, align 8
  %101 = load i64, ptr %13, align 8
  %102 = load i64, ptr %10, align 8
  %103 = mul i64 %101, %102
  call void @llvm.memset.p0.i64(ptr align 1 %100, i8 0, i64 %103, i1 false)
  br label %249

104:                                              ; preds = %92, %79
  %105 = load ptr, ptr %4, align 8
  %106 = getelementptr inbounds %struct.H5A_t, ptr %105, i32 0, i32 4
  %107 = load ptr, ptr %106, align 8
  %108 = getelementptr inbounds %struct.H5A_shared_t, ptr %107, i32 0, i32 3
  %109 = load ptr, ptr %108, align 8
  %110 = load ptr, ptr %5, align 8
  %111 = call ptr @H5T_path_find(ptr noundef %109, ptr noundef %110)
  store ptr %111, ptr %11, align 8
  %112 = icmp eq ptr null, %111
  br i1 %112, label %113, label %128

113:                                              ; preds = %104
  br label %114

114:                                              ; preds = %113
  br label %115

115:                                              ; preds = %114
  br label %116

116:                                              ; preds = %115
  %117 = load i64, ptr @H5E_ATTR_g, align 8
  %118 = load i64, ptr @H5E_UNSUPPORTED_g, align 8
  %119 = call i32 (ptr, ptr, i32, i64, i64, ptr, ...) @H5E_printf_stack(ptr noundef @.str.3, ptr noundef @__func__.H5A__read, i32 noundef 710, i64 noundef %117, i64 noundef %118, ptr noundef @.str.35)
  br label %120

120:                                              ; preds = %116
  store i8 1, ptr %17, align 1
  %121 = load i8, ptr %17, align 1
  %122 = trunc i8 %121 to i1
  %123 = zext i1 %122 to i8
  store i8 %123, ptr %17, align 1
  br label %124

124:                                              ; preds = %120
  br label %125

125:                                              ; preds = %124
  store i32 -1, ptr %15, align 4
  br label %251

126:                                              ; No predecessors!
  br label %127

127:                                              ; preds = %126
  br label %128

128:                                              ; preds = %127, %104
  %129 = load ptr, ptr %11, align 8
  %130 = call zeroext i1 @H5T_path_noop(ptr noundef %129)
  br i1 %130, label %238, label %131

131:                                              ; preds = %128
  %132 = load i64, ptr %10, align 8
  %133 = load i64, ptr %12, align 8
  %134 = load i64, ptr %13, align 8
  %135 = icmp ugt i64 %133, %134
  br i1 %135, label %136, label %138

136:                                              ; preds = %131
  %137 = load i64, ptr %12, align 8
  br label %140

138:                                              ; preds = %131
  %139 = load i64, ptr %13, align 8
  br label %140

140:                                              ; preds = %138, %136
  %141 = phi i64 [ %137, %136 ], [ %139, %138 ]
  %142 = mul i64 %132, %141
  store i64 %142, ptr %14, align 8
  %143 = load i64, ptr %14, align 8
  %144 = call noalias ptr @H5FL_blk_malloc(ptr noundef @H5_attr_buf_blk_free_list, i64 noundef %143)
  store ptr %144, ptr %7, align 8
  %145 = icmp eq ptr null, %144
  br i1 %145, label %146, label %161

146:                                              ; preds = %140
  br label %147

147:                                              ; preds = %146
  br label %148

148:                                              ; preds = %147
  br label %149

149:                                              ; preds = %148
  %150 = load i64, ptr @H5E_ATTR_g, align 8
  %151 = load i64, ptr @H5E_NOSPACE_g, align 8
  %152 = call i32 (ptr, ptr, i32, i64, i64, ptr, ...) @H5E_printf_stack(ptr noundef @.str.3, ptr noundef @__func__.H5A__read, i32 noundef 719, i64 noundef %150, i64 noundef %151, ptr noundef @.str.36)
  br label %153

153:                                              ; preds = %149
  store i8 1, ptr %17, align 1
  %154 = load i8, ptr %17, align 1
  %155 = trunc i8 %154 to i1
  %156 = zext i1 %155 to i8
  store i8 %156, ptr %17, align 1
  br label %157

157:                                              ; preds = %153
  br label %158

158:                                              ; preds = %157
  store i32 -1, ptr %15, align 4
  br label %251

159:                                              ; No predecessors!
  br label %160

160:                                              ; preds = %159
  br label %161

161:                                              ; preds = %160, %140
  %162 = load ptr, ptr %7, align 8
  %163 = load ptr, ptr %4, align 8
  %164 = getelementptr inbounds %struct.H5A_t, ptr %163, i32 0, i32 4
  %165 = load ptr, ptr %164, align 8
  %166 = getelementptr inbounds %struct.H5A_shared_t, ptr %165, i32 0, i32 7
  %167 = load ptr, ptr %166, align 8
  %168 = load i64, ptr %12, align 8
  %169 = load i64, ptr %10, align 8
  %170 = mul i64 %168, %169
  call void @llvm.memcpy.p0.p0.i64(ptr align 1 %162, ptr align 1 %167, i64 %170, i1 false)
  %171 = load ptr, ptr %11, align 8
  %172 = call i32 @H5T_path_bkg(ptr noundef %171)
  store i32 %172, ptr %18, align 4
  %173 = load i32, ptr %18, align 4
  %174 = icmp ne i32 %173, 0
  br i1 %174, label %175, label %204

175:                                              ; preds = %161
  %176 = load i64, ptr %14, align 8
  %177 = call noalias ptr @H5FL_blk_calloc(ptr noundef @H5_attr_buf_blk_free_list, i64 noundef %176)
  store ptr %177, ptr %8, align 8
  %178 = icmp eq ptr null, %177
  br i1 %178, label %179, label %194

179:                                              ; preds = %175
  br label %180

180:                                              ; preds = %179
  br label %181

181:                                              ; preds = %180
  br label %182

182:                                              ; preds = %181
  %183 = load i64, ptr @H5E_ATTR_g, align 8
  %184 = load i64, ptr @H5E_CANTALLOC_g, align 8
  %185 = call i32 (ptr, ptr, i32, i64, i64, ptr, ...) @H5E_printf_stack(ptr noundef @.str.3, ptr noundef @__func__.H5A__read, i32 noundef 730, i64 noundef %183, i64 noundef %184, ptr noundef @.str.36)
  br label %186

186:                                              ; preds = %182
  store i8 1, ptr %17, align 1
  %187 = load i8, ptr %17, align 1
  %188 = trunc i8 %187 to i1
  %189 = zext i1 %188 to i8
  store i8 %189, ptr %17, align 1
  br label %190

190:                                              ; preds = %186
  br label %191

191:                                              ; preds = %190
  store i32 -1, ptr %15, align 4
  br label %251

192:                                              ; No predecessors!
  br label %193

193:                                              ; preds = %192
  br label %194

194:                                              ; preds = %193, %175
  %195 = load i32, ptr %18, align 4
  %196 = icmp eq i32 %195, 2
  br i1 %196, label %197, label %203

197:                                              ; preds = %194
  %198 = load ptr, ptr %8, align 8
  %199 = load ptr, ptr %6, align 8
  %200 = load i64, ptr %13, align 8
  %201 = load i64, ptr %10, align 8
  %202 = mul i64 %200, %201
  call void @llvm.memcpy.p0.p0.i64(ptr align 1 %198, ptr align 1 %199, i64 %202, i1 false)
  br label %203

203:                                              ; preds = %197, %194
  br label %204

204:                                              ; preds = %203, %161
  %205 = load ptr, ptr %11, align 8
  %206 = load ptr, ptr %4, align 8
  %207 = getelementptr inbounds %struct.H5A_t, ptr %206, i32 0, i32 4
  %208 = load ptr, ptr %207, align 8
  %209 = getelementptr inbounds %struct.H5A_shared_t, ptr %208, i32 0, i32 3
  %210 = load ptr, ptr %209, align 8
  %211 = load ptr, ptr %5, align 8
  %212 = load i64, ptr %10, align 8
  %213 = load ptr, ptr %7, align 8
  %214 = load ptr, ptr %8, align 8
  %215 = call i32 @H5T_convert(ptr noundef %205, ptr noundef %210, ptr noundef %211, i64 noundef %212, i64 noundef 0, i64 noundef 0, ptr noundef %213, ptr noundef %214)
  %216 = icmp slt i32 %215, 0
  br i1 %216, label %217, label %232

217:                                              ; preds = %204
  br label %218

218:                                              ; preds = %217
  br label %219

219:                                              ; preds = %218
  br label %220

220:                                              ; preds = %219
  %221 = load i64, ptr @H5E_ATTR_g, align 8
  %222 = load i64, ptr @H5E_CANTCONVERT_g, align 8
  %223 = call i32 (ptr, ptr, i32, i64, i64, ptr, ...) @H5E_printf_stack(ptr noundef @.str.3, ptr noundef @__func__.H5A__read, i32 noundef 742, i64 noundef %221, i64 noundef %222, ptr noundef @.str.37)
  br label %224

224:                                              ; preds = %220
  store i8 1, ptr %17, align 1
  %225 = load i8, ptr %17, align 1
  %226 = trunc i8 %225 to i1
  %227 = zext i1 %226 to i8
  store i8 %227, ptr %17, align 1
  br label %228

228:                                              ; preds = %224
  br label %229

229:                                              ; preds = %228
  store i32 -1, ptr %15, align 4
  br label %251

230:                                              ; No predecessors!
  br label %231

231:                                              ; preds = %230
  br label %232

232:                                              ; preds = %231, %204
  %233 = load ptr, ptr %6, align 8
  %234 = load ptr, ptr %7, align 8
  %235 = load i64, ptr %13, align 8
  %236 = load i64, ptr %10, align 8
  %237 = mul i64 %235, %236
  call void @llvm.memcpy.p0.p0.i64(ptr align 1 %233, ptr align 1 %234, i64 %237, i1 false)
  br label %248

238:                                              ; preds = %128
  %239 = load ptr, ptr %6, align 8
  %240 = load ptr, ptr %4, align 8
  %241 = getelementptr inbounds %struct.H5A_t, ptr %240, i32 0, i32 4
  %242 = load ptr, ptr %241, align 8
  %243 = getelementptr inbounds %struct.H5A_shared_t, ptr %242, i32 0, i32 7
  %244 = load ptr, ptr %243, align 8
  %245 = load i64, ptr %13, align 8
  %246 = load i64, ptr %10, align 8
  %247 = mul i64 %245, %246
  call void @llvm.memcpy.p0.p0.i64(ptr align 1 %239, ptr align 1 %244, i64 %247, i1 false)
  br label %248

248:                                              ; preds = %238, %232
  br label %249

249:                                              ; preds = %248, %99
  br label %250

250:                                              ; preds = %249, %76
  br label %251

251:                                              ; preds = %250, %229, %191, %158, %125, %70, %47
  %252 = load ptr, ptr %7, align 8
  %253 = icmp ne ptr %252, null
  br i1 %253, label %254, label %257

254:                                              ; preds = %251
  %255 = load ptr, ptr %7, align 8
  %256 = call ptr @H5FL_blk_free(ptr noundef @H5_attr_buf_blk_free_list, ptr noundef %255)
  store ptr %256, ptr %7, align 8
  br label %257

257:                                              ; preds = %254, %251
  %258 = load ptr, ptr %8, align 8
  %259 = icmp ne ptr %258, null
  br i1 %259, label %260, label %263

260:                                              ; preds = %257
  %261 = load ptr, ptr %8, align 8
  %262 = call ptr @H5FL_blk_free(ptr noundef @H5_attr_buf_blk_free_list, ptr noundef %261)
  store ptr %262, ptr %8, align 8
  br label %263

263:                                              ; preds = %260, %257
  %264 = load i64, ptr %16, align 8
  call void @H5AC_tag(i64 noundef %264, ptr noundef null)
  %265 = load i32, ptr %15, align 4
  ret i32 %265
}