; Function Attrs: nounwind uwtable
define range(i32 -1, 1) i32 @H5A__read(ptr nocapture noundef readonly %0, ptr noundef %1, ptr nocapture noundef %2) local_unnamed_addr #0 {
  %4 = alloca i64, align 8
  store i64 -1, ptr %4, align 8
  %5 = getelementptr inbounds i8, ptr %0, i64 40
  %6 = getelementptr inbounds i8, ptr %0, i64 48
  %7 = load i64, ptr %6, align 8
  call void @H5AC_tag(i64 noundef %7, ptr noundef nonnull %4) #13
  %8 = getelementptr inbounds i8, ptr %0, i64 96
  %9 = load ptr, ptr %8, align 8
  %10 = getelementptr inbounds i8, ptr %9, i64 24
  %11 = load ptr, ptr %10, align 8
  %12 = load ptr, ptr %5, align 8
  %13 = call ptr @H5F_get_vol_obj(ptr noundef %12) #13
  %14 = call i32 @H5T_patch_vlen_file(ptr noundef %11, ptr noundef %13) #13
  %15 = icmp slt i32 %14, 0
  br i1 %15, label %16, label %20

16:                                               ; preds = %3
  %17 = load i64, ptr @H5E_DATASET_g, align 8
  %18 = load i64, ptr @H5E_CANTOPENOBJ_g, align 8
  %19 = call i32 (ptr, ptr, i32, i64, i64, ptr, ...) @H5E_printf_stack(ptr noundef nonnull @.str.3, ptr noundef nonnull @__func__.H5A__read, i32 noundef 690, i64 noundef %17, i64 noundef %18, ptr noundef nonnull @.str.34) #13
  br label %.thread77

20:                                               ; preds = %3
  %21 = load ptr, ptr %8, align 8
  %22 = getelementptr inbounds i8, ptr %21, i64 40
  %23 = load ptr, ptr %22, align 8
  %24 = call i64 @H5S_get_simple_extent_npoints(ptr noundef %23) #13
  %25 = icmp slt i64 %24, 0
  br i1 %25, label %26, label %30

26:                                               ; preds = %20
  %27 = load i64, ptr @H5E_ATTR_g, align 8
  %28 = load i64, ptr @H5E_CANTCOUNT_g, align 8
  %29 = call i32 (ptr, ptr, i32, i64, i64, ptr, ...) @H5E_printf_stack(ptr noundef nonnull @.str.3, ptr noundef nonnull @__func__.H5A__read, i32 noundef 694, i64 noundef %27, i64 noundef %28, ptr noundef nonnull @.str.23) #13
  br label %.thread77

30:                                               ; preds = %20
  %.not = icmp eq i64 %24, 0
  br i1 %.not, label %.thread77, label %31

31:                                               ; preds = %30
  %32 = load ptr, ptr %8, align 8
  %33 = getelementptr inbounds i8, ptr %32, i64 24
  %34 = load ptr, ptr %33, align 8
  %35 = call i64 @H5T_get_size(ptr noundef %34) #13
  %36 = call i64 @H5T_get_size(ptr noundef %1) #13
  %37 = getelementptr inbounds i8, ptr %0, i64 64
  %38 = load i8, ptr %37, align 8
  %39 = trunc i8 %38 to i1
  %.pre = load ptr, ptr %8, align 8
  br i1 %39, label %40, label %45

40:                                               ; preds = %31
  %41 = getelementptr inbounds i8, ptr %.pre, i64 56
  %42 = load ptr, ptr %41, align 8
  %.not67 = icmp eq ptr %42, null
  br i1 %.not67, label %43, label %45

43:                                               ; preds = %40
  %44 = mul i64 %36, %24
  call void @llvm.memset.p0.i64(ptr align 1 %2, i8 0, i64 %44, i1 false)
  br label %.thread77

45:                                               ; preds = %40, %31
  %46 = getelementptr inbounds i8, ptr %.pre, i64 24
  %47 = load ptr, ptr %46, align 8
  %48 = call ptr @H5T_path_find(ptr noundef %47, ptr noundef %1) #13
  %49 = icmp eq ptr %48, null
  br i1 %49, label %50, label %54

50:                                               ; preds = %45
  %51 = load i64, ptr @H5E_ATTR_g, align 8
  %52 = load i64, ptr @H5E_UNSUPPORTED_g, align 8
  %53 = call i32 (ptr, ptr, i32, i64, i64, ptr, ...) @H5E_printf_stack(ptr noundef nonnull @.str.3, ptr noundef nonnull @__func__.H5A__read, i32 noundef 710, i64 noundef %51, i64 noundef %52, ptr noundef nonnull @.str.35) #13
  br label %.thread77

54:                                               ; preds = %45
  %55 = call zeroext i1 @H5T_path_noop(ptr noundef nonnull %48) #13
  br i1 %55, label %94, label %56

56:                                               ; preds = %54
  %57 = call i64 @llvm.umax.i64(i64 %35, i64 %36)
  %58 = mul i64 %57, %24
  %59 = call noalias ptr @H5FL_blk_malloc(ptr noundef nonnull @H5_attr_buf_blk_free_list, i64 noundef %58) #13
  %60 = icmp eq ptr %59, null
  br i1 %60, label %61, label %65

61:                                               ; preds = %56
  %62 = load i64, ptr @H5E_ATTR_g, align 8
  %63 = load i64, ptr @H5E_NOSPACE_g, align 8
  %64 = call i32 (ptr, ptr, i32, i64, i64, ptr, ...) @H5E_printf_stack(ptr noundef nonnull @.str.3, ptr noundef nonnull @__func__.H5A__read, i32 noundef 719, i64 noundef %62, i64 noundef %63, ptr noundef nonnull @.str.36) #13
  br label %.thread77

65:                                               ; preds = %56
  %66 = load ptr, ptr %8, align 8
  %67 = getelementptr inbounds i8, ptr %66, i64 56
  %68 = load ptr, ptr %67, align 8
  %69 = mul i64 %35, %24
  call void @llvm.memcpy.p0.p0.i64(ptr nonnull align 1 %59, ptr align 1 %68, i64 %69, i1 false)
  %70 = call i32 @H5T_path_bkg(ptr noundef nonnull %48) #13
  %.not68 = icmp eq i32 %70, 0
  br i1 %.not68, label %82, label %71

71:                                               ; preds = %65
  %72 = call noalias ptr @H5FL_blk_calloc(ptr noundef nonnull @H5_attr_buf_blk_free_list, i64 noundef %58) #13
  %73 = icmp eq ptr %72, null
  br i1 %73, label %.thread82, label %78

.thread82:                                        ; preds = %71
  %74 = load i64, ptr @H5E_ATTR_g, align 8
  %75 = load i64, ptr @H5E_CANTALLOC_g, align 8
  %76 = call i32 (ptr, ptr, i32, i64, i64, ptr, ...) @H5E_printf_stack(ptr noundef nonnull @.str.3, ptr noundef nonnull @__func__.H5A__read, i32 noundef 730, i64 noundef %74, i64 noundef %75, ptr noundef nonnull @.str.36) #13
  %77 = call ptr @H5FL_blk_free(ptr noundef nonnull @H5_attr_buf_blk_free_list, ptr noundef nonnull %59) #13
  br label %.thread77

78:                                               ; preds = %71
  %79 = icmp eq i32 %70, 2
  br i1 %79, label %80, label %82

80:                                               ; preds = %78
  %81 = mul i64 %36, %24
  call void @llvm.memcpy.p0.p0.i64(ptr nonnull align 1 %72, ptr align 1 %2, i64 %81, i1 false)
  br label %82

82:                                               ; preds = %78, %80, %65
  %.059 = phi ptr [ %72, %80 ], [ %72, %78 ], [ null, %65 ]
  %83 = load ptr, ptr %8, align 8
  %84 = getelementptr inbounds i8, ptr %83, i64 24
  %85 = load ptr, ptr %84, align 8
  %86 = call i32 @H5T_convert(ptr noundef nonnull %48, ptr noundef %85, ptr noundef %1, i64 noundef %24, i64 noundef 0, i64 noundef 0, ptr noundef nonnull %59, ptr noundef %.059) #13
  %87 = icmp slt i32 %86, 0
  br i1 %87, label %88, label %92

88:                                               ; preds = %82
  %89 = load i64, ptr @H5E_ATTR_g, align 8
  %90 = load i64, ptr @H5E_CANTCONVERT_g, align 8
  %91 = call i32 (ptr, ptr, i32, i64, i64, ptr, ...) @H5E_printf_stack(ptr noundef nonnull @.str.3, ptr noundef nonnull @__func__.H5A__read, i32 noundef 742, i64 noundef %89, i64 noundef %90, ptr noundef nonnull @.str.37) #13
  br label %99

92:                                               ; preds = %82
  %93 = mul i64 %36, %24
  call void @llvm.memcpy.p0.p0.i64(ptr align 1 %2, ptr nonnull align 1 %59, i64 %93, i1 false)
  br label %99

94:                                               ; preds = %54
  %95 = load ptr, ptr %8, align 8
  %96 = getelementptr inbounds i8, ptr %95, i64 56
  %97 = load ptr, ptr %96, align 8
  %98 = mul i64 %36, %24
  call void @llvm.memcpy.p0.p0.i64(ptr align 1 %2, ptr align 1 %97, i64 %98, i1 false)
  br label %.thread77

99:                                               ; preds = %92, %88
  %.058 = phi i32 [ -1, %88 ], [ 0, %92 ]
  %100 = call ptr @H5FL_blk_free(ptr noundef nonnull @H5_attr_buf_blk_free_list, ptr noundef nonnull %59) #13
  %.not70 = icmp eq ptr %.059, null
  br i1 %.not70, label %.thread77, label %101

101:                                              ; preds = %99
  %102 = call ptr @H5FL_blk_free(ptr noundef nonnull @H5_attr_buf_blk_free_list, ptr noundef nonnull %.059) #13
  br label %.thread77

.thread77:                                        ; preds = %16, %26, %50, %94, %61, %43, %30, %.thread82, %101, %99
  %.0587681 = phi i32 [ %.058, %101 ], [ %.058, %99 ], [ -1, %.thread82 ], [ 0, %30 ], [ 0, %43 ], [ -1, %61 ], [ 0, %94 ], [ -1, %50 ], [ -1, %26 ], [ -1, %16 ]
  %103 = load i64, ptr %4, align 8
  call void @H5AC_tag(i64 noundef %103, ptr noundef null) #13
  ret i32 %.0587681
}